target datalayout = "e-m:e-p270:32:32-p271:32:32-p272:64:64-i64:64-i128:128-f80:128-n8:16:32:64-S128"
target triple = "x86_64-unknown-linux-gnu"

%"class.std::set.0" = type { %"class.std::_Rb_tree.1" }
%"class.std::_Rb_tree.1" = type { %"struct.std::_Rb_tree<QuantLib::Observer *, QuantLib::Observer *, std::_Identity<QuantLib::Observer *>, std::less<QuantLib::Observer *>>::_Rb_tree_impl" }
%"struct.std::_Rb_tree<QuantLib::Observer *, QuantLib::Observer *, std::_Identity<QuantLib::Observer *>, std::less<QuantLib::Observer *>>::_Rb_tree_impl" = type { [8 x i8], %"struct.std::_Rb_tree_header" }
%"struct.std::_Rb_tree_header" = type { %"struct.std::_Rb_tree_node_base", i64 }
%"struct.std::_Rb_tree_node_base" = type { i32, ptr, ptr, ptr }
%"class.std::set" = type { %"class.std::_Rb_tree" }
%"class.std::_Rb_tree" = type { %"struct.std::_Rb_tree<boost::shared_ptr<QuantLib::Observable>, boost::shared_ptr<QuantLib::Observable>, std::_Identity<boost::shared_ptr<QuantLib::Observable>>, std::less<boost::shared_ptr<QuantLib::Observable>>>::_Rb_tree_impl" }
%"struct.std::_Rb_tree<boost::shared_ptr<QuantLib::Observable>, boost::shared_ptr<QuantLib::Observable>, std::_Identity<boost::shared_ptr<QuantLib::Observable>>, std::less<boost::shared_ptr<QuantLib::Observable>>>::_Rb_tree_impl" = type { [8 x i8], %"struct.std::_Rb_tree_header" }
%"class.boost::detail::shared_count" = type { ptr }
%"class.QuantLib::Observable" = type { ptr, %"class.std::set.0" }
%"class.QuantLib::DayCounter" = type { %"class.boost::shared_ptr.18" }
%"class.boost::shared_ptr.18" = type { ptr, %"class.boost::detail::shared_count" }
%"class.QuantLib::Extrapolator.base" = type <{ ptr, i8 }>
%"class.QuantLib::Calendar" = type { %"class.boost::shared_ptr.19" }
%"class.boost::shared_ptr.19" = type { ptr, %"class.boost::detail::shared_count" }
%"class.QuantLib::Date" = type { i64 }
%"class.QuantLib::Observer" = type { ptr, %"class.std::set" }
%"class.QuantLib::TermStructure.base" = type { %"class.QuantLib::Extrapolator.base", i8, i8, %"class.QuantLib::Calendar", %"class.QuantLib::Date", i32, %"class.QuantLib::DayCounter" }
%"class.QuantLib::AndreasenHugeVolatilityAdapter" = type { %"class.QuantLib::BlackVarianceTermStructure.base", double, %"class.boost::shared_ptr.27", %"class.QuantLib::Observer", %"class.QuantLib::Observable" }
%"class.QuantLib::BlackVarianceTermStructure.base" = type { %"class.QuantLib::BlackVolTermStructure.base" }
%"class.QuantLib::BlackVolTermStructure.base" = type { %"class.QuantLib::VolatilityTermStructure.base" }
%"class.QuantLib::VolatilityTermStructure.base" = type <{ %"class.QuantLib::TermStructure.base", i32 }>
%"class.boost::shared_ptr.27" = type { ptr, %"class.boost::detail::shared_count" }

; Function Attrs: mustprogress nounwind uwtable
define linkonce_odr void @_ZN5boost6detail12shared_countC2Ev(ptr noundef nonnull align 8 dereferenceable(8) %this) unnamed_addr #1 comdat align 2 {
entry:
  %this.addr = alloca ptr, align 8
  store ptr %this, ptr %this.addr, align 8, !tbaa !3
  %this1 = load ptr, ptr %this.addr, align 8
  %pi_ = getelementptr inbounds nuw %"class.boost::detail::shared_count", ptr %this1, i32 0, i32 0
  store ptr null, ptr %pi_, align 8, !tbaa !75
  ret void
}

; Function Attrs: mustprogress nounwind uwtable
define linkonce_odr void @_ZN5boost6detail12shared_countC2EOS1_(ptr noundef nonnull align 8 dereferenceable(8) %this, ptr noundef nonnull align 8 dereferenceable(8) %r) unnamed_addr #1 comdat align 2 {
entry:
  %this.addr = alloca ptr, align 8
  %r.addr = alloca ptr, align 8
  store ptr %this, ptr %this.addr, align 8, !tbaa !3
  store ptr %r, ptr %r.addr, align 8, !tbaa !3
  %this1 = load ptr, ptr %this.addr, align 8
  %pi_ = getelementptr inbounds nuw %"class.boost::detail::shared_count", ptr %this1, i32 0, i32 0
  %0 = load ptr, ptr %r.addr, align 8, !tbaa !3
  %pi_2 = getelementptr inbounds nuw %"class.boost::detail::shared_count", ptr %0, i32 0, i32 0
  %1 = load ptr, ptr %pi_2, align 8, !tbaa !75
  store ptr %1, ptr %pi_, align 8, !tbaa !75
  %2 = load ptr, ptr %r.addr, align 8, !tbaa !3
  %pi_3 = getelementptr inbounds nuw %"class.boost::detail::shared_count", ptr %2, i32 0, i32 0
  store ptr null, ptr %pi_3, align 8, !tbaa !75
  ret void
}

; Function Attrs: mustprogress nounwind uwtable
define linkonce_odr void @_ZN5boost10shared_ptrIN8QuantLib10DayCounter4ImplEEC2Ev(ptr noundef nonnull align 8 dereferenceable(16) %this) unnamed_addr #1 comdat align 2 {
entry:
  %this.addr = alloca ptr, align 8
  store ptr %this, ptr %this.addr, align 8, !tbaa !3
  %this1 = load ptr, ptr %this.addr, align 8
  %px = getelementptr inbounds nuw %"class.boost::shared_ptr.18", ptr %this1, i32 0, i32 0
  store ptr null, ptr %px, align 8, !tbaa !76
  %pn = getelementptr inbounds nuw %"class.boost::shared_ptr.18", ptr %this1, i32 0, i32 1
  call void @_ZN5boost6detail12shared_countC2Ev(ptr noundef nonnull align 8 dereferenceable(8) %pn) #14
  ret void
}

; Function Attrs: mustprogress nounwind uwtable
define linkonce_odr void @_ZN5boost10shared_ptrIN8QuantLib30AndreasenHugeVolatilityInterplEEC2EOS3_(ptr noundef nonnull align 8 dereferenceable(16) %this, ptr noundef nonnull align 8 dereferenceable(16) %r) unnamed_addr #1 comdat align 2 {
entry:
  %this.addr = alloca ptr, align 8
  %r.addr = alloca ptr, align 8
  store ptr %this, ptr %this.addr, align 8, !tbaa !3
  store ptr %r, ptr %r.addr, align 8, !tbaa !3
  %this1 = load ptr, ptr %this.addr, align 8
  %px = getelementptr inbounds nuw %"class.boost::shared_ptr.27", ptr %this1, i32 0, i32 0
  %0 = load ptr, ptr %r.addr, align 8, !tbaa !3
  %px2 = getelementptr inbounds nuw %"class.boost::shared_ptr.27", ptr %0, i32 0, i32 0
  %1 = load ptr, ptr %px2, align 8, !tbaa !34
  store ptr %1, ptr %px, align 8, !tbaa !34
  %pn = getelementptr inbounds nuw %"class.boost::shared_ptr.27", ptr %this1, i32 0, i32 1
  %2 = load ptr, ptr %r.addr, align 8, !tbaa !3
  %pn3 = getelementptr inbounds nuw %"class.boost::shared_ptr.27", ptr %2, i32 0, i32 1
  call void @_ZN5boost6detail12shared_countC2EOS1_(ptr noundef nonnull align 8 dereferenceable(8) %pn, ptr noundef nonnull align 8 dereferenceable(8) %pn3) #14
  %3 = load ptr, ptr %r.addr, align 8, !tbaa !3
  %px4 = getelementptr inbounds nuw %"class.boost::shared_ptr.27", ptr %3, i32 0, i32 0
  store ptr null, ptr %px4, align 8, !tbaa !34
  ret void
}

; Function Attrs: mustprogress nounwind uwtable
define linkonce_odr void @_ZN8QuantLib10DayCounterC2Ev(ptr noundef nonnull align 8 dereferenceable(16) %this) unnamed_addr #1 comdat align 2 {
entry:
  %this.addr = alloca ptr, align 8
  store ptr %this, ptr %this.addr, align 8, !tbaa !3
  %this1 = load ptr, ptr %this.addr, align 8
  %impl_ = getelementptr inbounds nuw %"class.QuantLib::DayCounter", ptr %this1, i32 0, i32 0
  call void @_ZN5boost10shared_ptrIN8QuantLib10DayCounter4ImplEEC2Ev(ptr noundef nonnull align 8 dereferenceable(16) %impl_) #14
  ret void
}

; Function Attrs: mustprogress uwtable
define void @_ZN8QuantLib30AndreasenHugeVolatilityAdapterC2EN5boost10shared_ptrINS_30AndreasenHugeVolatilityInterplEEEd(ptr noundef nonnull align 8 dereferenceable(96) %this, ptr noundef %vtt, ptr noundef %volInterpl, double noundef %eps) unnamed_addr #2 align 2 personality ptr @__gxx_personality_v0 {
entry:
  %this.addr = alloca ptr, align 8
  %vtt.addr = alloca ptr, align 8
  %volInterpl.indirect_addr = alloca ptr, align 8
  %eps.addr = alloca double, align 8
  %ref.tmp = alloca %"class.QuantLib::DayCounter", align 8
  %exn.slot = alloca ptr, align 8
  %ehselector.slot = alloca i32, align 4
  store ptr %this, ptr %this.addr, align 8, !tbaa !3
  store ptr %vtt, ptr %vtt.addr, align 8, !tbaa !3
  store ptr %volInterpl, ptr %volInterpl.indirect_addr, align 8, !tbaa !3
  store double %eps, ptr %eps.addr, align 8, !tbaa !27
  %this1 = load ptr, ptr %this.addr, align 8
  %vtt2 = load ptr, ptr %vtt.addr, align 8
  call void @llvm.lifetime.start.p0(i64 16, ptr %ref.tmp) #14
  call void @llvm.memset.p0.i64(ptr align 8 %ref.tmp, i8 0, i64 16, i1 false)
  call void @_ZN8QuantLib10DayCounterC2Ev(ptr noundef nonnull align 8 dereferenceable(16) %ref.tmp) #14
  %0 = getelementptr inbounds ptr, ptr %vtt2, i64 1
  invoke void @_ZN8QuantLib26BlackVarianceTermStructureC2ENS_21BusinessDayConventionERKNS_10DayCounterE(ptr noundef nonnull align 8 dereferenceable(68) %this1, ptr noundef %0, i32 noundef 0, ptr noundef nonnull align 8 dereferenceable(16) %ref.tmp)
          to label %invoke.cont unwind label %lpad

invoke.cont:                                      ; preds = %entry
  call void @_ZN8QuantLib10DayCounterD2Ev(ptr noundef nonnull align 8 dereferenceable(16) %ref.tmp) #14
  call void @llvm.lifetime.end.p0(i64 16, ptr %ref.tmp) #14
  %1 = load ptr, ptr %vtt2, align 8
  store ptr %1, ptr %this1, align 8, !tbaa !12
  %2 = getelementptr inbounds ptr, ptr %vtt2, i64 13
  %3 = load ptr, ptr %2, align 8
  %vtable = load ptr, ptr %this1, align 8, !tbaa !12
  %vbase.offset.ptr = getelementptr i8, ptr %vtable, i64 -24
  %vbase.offset = load i64, ptr %vbase.offset.ptr, align 8
  %add.ptr = getelementptr inbounds i8, ptr %this1, i64 %vbase.offset
  store ptr %3, ptr %add.ptr, align 8, !tbaa !12
  %4 = getelementptr inbounds ptr, ptr %vtt2, i64 14
  %5 = load ptr, ptr %4, align 8
  %vtable3 = load ptr, ptr %this1, align 8, !tbaa !12
  %vbase.offset.ptr4 = getelementptr i8, ptr %vtable3, i64 -32
  %vbase.offset5 = load i64, ptr %vbase.offset.ptr4, align 8
  %add.ptr6 = getelementptr inbounds i8, ptr %this1, i64 %vbase.offset5
  store ptr %5, ptr %add.ptr6, align 8, !tbaa !12
  %eps_ = getelementptr inbounds nuw %"class.QuantLib::AndreasenHugeVolatilityAdapter", ptr %this1, i32 0, i32 1
  %6 = load double, ptr %eps.addr, align 8, !tbaa !27
  store double %6, ptr %eps_, align 8, !tbaa !29
  %volInterpl_ = getelementptr inbounds nuw %"class.QuantLib::AndreasenHugeVolatilityAdapter", ptr %this1, i32 0, i32 2
  call void @_ZN5boost10shared_ptrIN8QuantLib30AndreasenHugeVolatilityInterplEEC2EOS3_(ptr noundef nonnull align 8 dereferenceable(16) %volInterpl_, ptr noundef nonnull align 8 dereferenceable(16) %volInterpl) #14
  ret void

lpad:                                             ; preds = %entry
  %7 = landingpad { ptr, i32 }
          cleanup
  %8 = extractvalue { ptr, i32 } %7, 0
  store ptr %8, ptr %exn.slot, align 8
  %9 = extractvalue { ptr, i32 } %7, 1
  store i32 %9, ptr %ehselector.slot, align 4
  call void @_ZN8QuantLib10DayCounterD2Ev(ptr noundef nonnull align 8 dereferenceable(16) %ref.tmp) #14
  call void @llvm.lifetime.end.p0(i64 16, ptr %ref.tmp) #14
  br label %eh.resume

eh.resume:                                        ; preds = %lpad
  %exn = load ptr, ptr %exn.slot, align 8
  %sel = load i32, ptr %ehselector.slot, align 4
  %lpad.val = insertvalue { ptr, i32 } poison, ptr %exn, 0
  %lpad.val7 = insertvalue { ptr, i32 } %lpad.val, i32 %sel, 1
  resume { ptr, i32 } %lpad.val7
}